; Function Attrs: nounwind uwtable
define internal fastcc ptr @_get_check(i32 noundef range(i32 1, 15) %0, ptr noundef %1, ptr noundef readonly captures(address_is_null) %2) unnamed_addr #0 {
  %.not = icmp eq ptr %2, null
  br i1 %.not, label %35, label %4

4:                                                ; preds = %3
  %5 = load i8, ptr %1, align 1
  %.not8.i.i = icmp eq i8 %5, 0
  br i1 %.not8.i.i, label %_conf_hashtbl_index.exit.i, label %.lr.ph.i.i

.lr.ph.i.i:                                       ; preds = %4
  %6 = tail call ptr @__ctype_tolower_loc() #15
  %7 = load ptr, ptr %6, align 8
  br label %8

8:                                                ; preds = %8, %.lr.ph.i.i
  %9 = phi i8 [ %5, %.lr.ph.i.i ], [ %16, %8 ]
  %.010.i.i = phi ptr [ %1, %.lr.ph.i.i ], [ %15, %8 ]
  %.069.i.i = phi i32 [ 0, %.lr.ph.i.i ], [ %14, %8 ]
  %10 = sext i8 %9 to i64
  %11 = getelementptr inbounds i32, ptr %7, i64 %10
  %12 = load i32, ptr %11, align 4
  %13 = mul i32 %.069.i.i, 31
  %14 = add i32 %12, %13
  %15 = getelementptr inbounds nuw i8, ptr %.010.i.i, i64 1
  %16 = load i8, ptr %15, align 1
  %.not.i.i = icmp eq i8 %16, 0
  br i1 %.not.i.i, label %._crit_edge.loopexit.i.i, label %8, !llvm.loop !28

._crit_edge.loopexit.i.i:                         ; preds = %8
  %17 = urem i32 %14, 173
  %18 = zext nneg i32 %17 to i64
  br label %_conf_hashtbl_index.exit.i

_conf_hashtbl_index.exit.i:                       ; preds = %._crit_edge.loopexit.i.i, %4
  %.06.lcssa.i.i = phi i64 [ 0, %4 ], [ %18, %._crit_edge.loopexit.i.i ]
  %19 = getelementptr inbounds nuw i8, ptr %2, i64 64
  %20 = getelementptr inbounds nuw [173 x ptr], ptr %19, i64 0, i64 %.06.lcssa.i.i
  %.012.i = load ptr, ptr %20, align 8
  %.not1113.i = icmp eq ptr %.012.i, null
  br i1 %.not1113.i, label %.loopexit, label %.lr.ph.i

.lr.ph.i:                                         ; preds = %_conf_hashtbl_index.exit.i, %24
  %.014.i = phi ptr [ %.0.i, %24 ], [ %.012.i, %_conf_hashtbl_index.exit.i ]
  %21 = load ptr, ptr %.014.i, align 8
  %22 = tail call i32 @xstrcasecmp(ptr noundef %21, ptr noundef nonnull %1) #13
  %23 = icmp eq i32 %22, 0
  br i1 %23, label %_conf_hashtbl_lookup.exit, label %24

24:                                               ; preds = %.lr.ph.i
  %25 = getelementptr inbounds nuw i8, ptr %.014.i, i64 48
  %.0.i = load ptr, ptr %25, align 8
  %.not11.i = icmp eq ptr %.0.i, null
  br i1 %.not11.i, label %.loopexit, label %.lr.ph.i, !llvm.loop !29

.loopexit:                                        ; preds = %24, %_conf_hashtbl_index.exit.i
  %26 = tail call i32 (ptr, ...) @error(ptr noundef nonnull @.str.18, ptr noundef nonnull %1) #13
  br label %35

_conf_hashtbl_lookup.exit:                        ; preds = %.lr.ph.i
  %27 = getelementptr inbounds nuw i8, ptr %.014.i, i64 8
  %28 = load i32, ptr %27, align 8
  %.not12 = icmp eq i32 %28, %0
  br i1 %.not12, label %31, label %29

29:                                               ; preds = %_conf_hashtbl_lookup.exit
  %30 = tail call i32 (ptr, ...) @error(ptr noundef nonnull @.str.53, ptr noundef nonnull %1) #13
  br label %35

31:                                               ; preds = %_conf_hashtbl_lookup.exit
  %32 = getelementptr inbounds nuw i8, ptr %.014.i, i64 16
  %33 = load i32, ptr %32, align 8
  %34 = icmp eq i32 %33, 0
  %. = select i1 %34, ptr null, ptr %.014.i
  br label %35

35:                                               ; preds = %31, %3, %29, %.loopexit
  %.0 = phi ptr [ null, %.loopexit ], [ null, %29 ], [ null, %3 ], [ %., %31 ]
  ret ptr %.0
}